target datalayout = "e-m:e-p270:32:32-p271:32:32-p272:64:64-i64:64-i128:128-f80:128-n8:16:32:64-S128"
target triple = "x86_64-pc-linux-gnu"

%struct.expert_field = type { i32, i32 }
%struct._proto_node = type { ptr, ptr, ptr, ptr, ptr, ptr, ptr }
%struct.field_info = type { ptr, i32, i32, i32, i32, i32, i32, ptr, ptr, ptr, i32, i32 }

@hf_pktc_list_of_ciphersuites = internal global i32 0, align 4
@hf_pktc_list_of_ciphersuites_len = internal global i32 0, align 4
@hf_pktc_snmpAuthenticationAlgorithm = internal global i32 0, align 4
@hf_pktc_snmpEncryptionTransformID = internal global i32 0, align 4
@hf_pktc_ipsecAuthenticationAlgorithm = internal global i32 0, align 4
@hf_pktc_ipsecEncryptionTransformID = internal global i32 0, align 4
@ett_pktc_list_of_ciphersuites = internal global i32 0, align 4
@ei_pktc_unknown_doi = internal global %struct.expert_field zeroinitializer, align 4
@snmp_authentication_algorithm_vals = internal constant [3 x { i32, [4 x i8], ptr }] [{ i32, [4 x i8], ptr } { i32 33, [4 x i8] zeroinitializer, ptr @.str.107 }, { i32, [4 x i8], ptr } { i32 34, [4 x i8] zeroinitializer, ptr @.str.108 }, { i32, [4 x i8], ptr } zeroinitializer], align 16
@snmp_transform_id_vals = internal constant [3 x { i32, [4 x i8], ptr }] [{ i32, [4 x i8], ptr } { i32 32, [4 x i8] zeroinitializer, ptr @.str.110 }, { i32, [4 x i8], ptr } { i32 33, [4 x i8] zeroinitializer, ptr @.str.111 }, { i32, [4 x i8], ptr } zeroinitializer], align 16
@ipsec_authentication_algorithm_vals = internal constant [3 x { i32, [4 x i8], ptr }] [{ i32, [4 x i8], ptr } { i32 1, [4 x i8] zeroinitializer, ptr @.str.113 }, { i32, [4 x i8], ptr } { i32 2, [4 x i8] zeroinitializer, ptr @.str.114 }, { i32, [4 x i8], ptr } zeroinitializer], align 16
@.str.127 = private unnamed_addr constant [7 x i8] c" (%d):\00", align 1
@.str.128 = private unnamed_addr constant [4 x i8] c" %s\00", align 1
@.str.129 = private unnamed_addr constant [4 x i8] c"%0x\00", align 1
@.str.130 = private unnamed_addr constant [4 x i8] c"/%s\00", align 1

; Function Attrs: inlinehint nounwind null_pointer_is_valid sspstrong uwtable
define internal void @proto_item_set_hidden(ptr noundef %0) #3 {
  %2 = alloca ptr, align 8
  store ptr %0, ptr %2, align 8
  %3 = load ptr, ptr %2, align 8
  %4 = icmp ne ptr %3, null
  br i1 %4, label %5, label %24

5:                                                ; preds = %1
  br label %6

6:                                                ; preds = %5
  %7 = load ptr, ptr %2, align 8
  %8 = getelementptr inbounds nuw %struct._proto_node, ptr %7, i32 0, i32 5
  %9 = load ptr, ptr %8, align 8
  %10 = icmp ne ptr %9, null
  br i1 %10, label %11, label %22

11:                                               ; preds = %6
  %12 = load ptr, ptr %2, align 8
  %13 = getelementptr inbounds nuw %struct._proto_node, ptr %12, i32 0, i32 5
  %14 = load ptr, ptr %13, align 8
  %15 = getelementptr inbounds nuw %struct.field_info, ptr %14, i32 0, i32 6
  %16 = load i32, ptr %15, align 4
  %17 = or i32 %16, 1
  %18 = load ptr, ptr %2, align 8
  %19 = getelementptr inbounds nuw %struct._proto_node, ptr %18, i32 0, i32 5
  %20 = load ptr, ptr %19, align 8
  %21 = getelementptr inbounds nuw %struct.field_info, ptr %20, i32 0, i32 6
  store i32 %17, ptr %21, align 4
  br label %22

22:                                               ; preds = %11, %6
  br label %23

23:                                               ; preds = %22
  br label %24

24:                                               ; preds = %23, %1
  ret void
}

; Function Attrs: null_pointer_is_valid sspstrong uwtable
define internal i32 @dissect_pktc_list_of_ciphersuites(ptr noundef %0, ptr noundef %1, ptr noundef %2, i32 noundef %3, i8 noundef zeroext %4) #0 {
  %6 = alloca ptr, align 8
  %7 = alloca ptr, align 8
  %8 = alloca ptr, align 8
  %9 = alloca i32, align 4
  %10 = alloca i8, align 1
  %11 = alloca i32, align 4
  %12 = alloca ptr, align 8
  %13 = alloca ptr, align 8
  %14 = alloca ptr, align 8
  %15 = alloca i8, align 1
  %16 = alloca i8, align 1
  store ptr %0, ptr %6, align 8
  store ptr %1, ptr %7, align 8
  store ptr %2, ptr %8, align 8
  store i32 %3, ptr %9, align 4
  store i8 %4, ptr %10, align 1
  call void @llvm.lifetime.start.p0(i64 4, ptr %11) #5
  %17 = load i32, ptr %9, align 4
  store i32 %17, ptr %11, align 4
  call void @llvm.lifetime.start.p0(i64 8, ptr %12) #5
  call void @llvm.lifetime.start.p0(i64 8, ptr %13) #5
  call void @llvm.lifetime.start.p0(i64 8, ptr %14) #5
  call void @llvm.lifetime.start.p0(i64 1, ptr %15) #5
  call void @llvm.lifetime.start.p0(i64 1, ptr %16) #5
  %18 = load ptr, ptr %7, align 8
  %19 = load i32, ptr @hf_pktc_list_of_ciphersuites, align 4
  %20 = load ptr, ptr %8, align 8
  %21 = load i32, ptr %9, align 4
  %22 = call ptr @proto_tree_add_item(ptr noundef %18, i32 noundef %19, ptr noundef %20, i32 noundef %21, i32 noundef -1, i32 noundef 0)
  store ptr %22, ptr %13, align 8
  %23 = load ptr, ptr %13, align 8
  %24 = load i32, ptr @ett_pktc_list_of_ciphersuites, align 4
  %25 = call ptr @proto_item_add_subtree(ptr noundef %23, i32 noundef %24)
  store ptr %25, ptr %12, align 8
  %26 = load ptr, ptr %8, align 8
  %27 = load i32, ptr %9, align 4
  %28 = call zeroext i8 @tvb_get_uint8(ptr noundef %26, i32 noundef %27)
  store i8 %28, ptr %15, align 1
  %29 = load i8, ptr %15, align 1
  %30 = zext i8 %29 to i32
  %31 = icmp sgt i32 %30, 0
  br i1 %31, label %32, label %36

32:                                               ; preds = %5
  %33 = load ptr, ptr %12, align 8
  %34 = load i8, ptr %15, align 1
  %35 = zext i8 %34 to i32
  call void (ptr, ptr, ...) @proto_item_append_text(ptr noundef %33, ptr noundef @.str.127, i32 noundef %35)
  br label %36

36:                                               ; preds = %32, %5
  %37 = load ptr, ptr %12, align 8
  %38 = load i32, ptr @hf_pktc_list_of_ciphersuites_len, align 4
  %39 = load ptr, ptr %8, align 8
  %40 = load i32, ptr %9, align 4
  %41 = load i8, ptr %15, align 1
  %42 = zext i8 %41 to i32
  %43 = call ptr @proto_tree_add_uint(ptr noundef %37, i32 noundef %38, ptr noundef %39, i32 noundef %40, i32 noundef 1, i32 noundef %42)
  store ptr %43, ptr %14, align 8
  %44 = load ptr, ptr %14, align 8
  call void @proto_item_set_hidden(ptr noundef %44)
  %45 = load i32, ptr %9, align 4
  %46 = add i32 %45, 1
  store i32 %46, ptr %9, align 4
  %47 = load i8, ptr %10, align 1
  %48 = zext i8 %47 to i32
  switch i32 %48, label %125 [
    i32 2, label %49
    i32 1, label %87
  ]

49:                                               ; preds = %36
  store i8 0, ptr %16, align 1
  br label %50

50:                                               ; preds = %83, %49
  %51 = load i8, ptr %16, align 1
  %52 = zext i8 %51 to i32
  %53 = load i8, ptr %15, align 1
  %54 = zext i8 %53 to i32
  %55 = icmp slt i32 %52, %54
  br i1 %55, label %56, label %86

56:                                               ; preds = %50
  %57 = load ptr, ptr %12, align 8
  %58 = load i32, ptr @hf_pktc_snmpAuthenticationAlgorithm, align 4
  %59 = load ptr, ptr %8, align 8
  %60 = load i32, ptr %9, align 4
  %61 = call ptr @proto_tree_add_item(ptr noundef %57, i32 noundef %58, ptr noundef %59, i32 noundef %60, i32 noundef 1, i32 noundef 0)
  %62 = load ptr, ptr %12, align 8
  %63 = load ptr, ptr %8, align 8
  %64 = load i32, ptr %9, align 4
  %65 = call zeroext i8 @tvb_get_uint8(ptr noundef %63, i32 noundef %64)
  %66 = zext i8 %65 to i32
  %67 = call ptr @val_to_str(i32 noundef %66, ptr noundef @snmp_authentication_algorithm_vals, ptr noundef @.str.129)
  call void (ptr, ptr, ...) @proto_item_append_text(ptr noundef %62, ptr noundef @.str.128, ptr noundef %67)
  %68 = load i32, ptr %9, align 4
  %69 = add i32 %68, 1
  store i32 %69, ptr %9, align 4
  %70 = load ptr, ptr %12, align 8
  %71 = load i32, ptr @hf_pktc_snmpEncryptionTransformID, align 4
  %72 = load ptr, ptr %8, align 8
  %73 = load i32, ptr %9, align 4
  %74 = call ptr @proto_tree_add_item(ptr noundef %70, i32 noundef %71, ptr noundef %72, i32 noundef %73, i32 noundef 1, i32 noundef 0)
  %75 = load ptr, ptr %12, align 8
  %76 = load ptr, ptr %8, align 8
  %77 = load i32, ptr %9, align 4
  %78 = call zeroext i8 @tvb_get_uint8(ptr noundef %76, i32 noundef %77)
  %79 = zext i8 %78 to i32
  %80 = call ptr @val_to_str(i32 noundef %79, ptr noundef @snmp_transform_id_vals, ptr noundef @.str.129)
  call void (ptr, ptr, ...) @proto_item_append_text(ptr noundef %75, ptr noundef @.str.130, ptr noundef %80)
  %81 = load i32, ptr %9, align 4
  %82 = add i32 %81, 1
  store i32 %82, ptr %9, align 4
  br label %83

83:                                               ; preds = %56
  %84 = load i8, ptr %16, align 1
  %85 = add i8 %84, 1
  store i8 %85, ptr %16, align 1
  br label %50, !llvm.loop !6

86:                                               ; preds = %50
  br label %131

87:                                               ; preds = %36
  store i8 0, ptr %16, align 1
  br label %88

88:                                               ; preds = %121, %87
  %89 = load i8, ptr %16, align 1
  %90 = zext i8 %89 to i32
  %91 = load i8, ptr %15, align 1
  %92 = zext i8 %91 to i32
  %93 = icmp slt i32 %90, %92
  br i1 %93, label %94, label %124

94:                                               ; preds = %88
  %95 = load ptr, ptr %12, align 8
  %96 = load i32, ptr @hf_pktc_ipsecAuthenticationAlgorithm, align 4
  %97 = load ptr, ptr %8, align 8
  %98 = load i32, ptr %9, align 4
  %99 = call ptr @proto_tree_add_item(ptr noundef %95, i32 noundef %96, ptr noundef %97, i32 noundef %98, i32 noundef 1, i32 noundef 0)
  %100 = load ptr, ptr %12, align 8
  %101 = load ptr, ptr %8, align 8
  %102 = load i32, ptr %9, align 4
  %103 = call zeroext i8 @tvb_get_uint8(ptr noundef %101, i32 noundef %102)
  %104 = zext i8 %103 to i32
  %105 = call ptr @val_to_str(i32 noundef %104, ptr noundef @ipsec_authentication_algorithm_vals, ptr noundef @.str.129)
  call void (ptr, ptr, ...) @proto_item_append_text(ptr noundef %100, ptr noundef @.str.128, ptr noundef %105)
  %106 = load i32, ptr %9, align 4
  %107 = add i32 %106, 1
  store i32 %107, ptr %9, align 4
  %108 = load ptr, ptr %12, align 8
  %109 = load i32, ptr @hf_pktc_ipsecEncryptionTransformID, align 4
  %110 = load ptr, ptr %8, align 8
  %111 = load i32, ptr %9, align 4
  %112 = call ptr @proto_tree_add_item(ptr noundef %108, i32 noundef %109, ptr noundef %110, i32 noundef %111, i32 noundef 1, i32 noundef 0)
  %113 = load ptr, ptr %12, align 8
  %114 = load ptr, ptr %8, align 8
  %115 = load i32, ptr %9, align 4
  %116 = call zeroext i8 @tvb_get_uint8(ptr noundef %114, i32 noundef %115)
  %117 = zext i8 %116 to i32
  %118 = call ptr @val_to_str(i32 noundef %117, ptr noundef @ipsec_transform_id_vals, ptr noundef @.str.129)
  call void (ptr, ptr, ...) @proto_item_append_text(ptr noundef %113, ptr noundef @.str.130, ptr noundef %118)
  %119 = load i32, ptr %9, align 4
  %120 = add i32 %119, 1
  store i32 %120, ptr %9, align 4
  br label %121

121:                                              ; preds = %94
  %122 = load i8, ptr %16, align 1
  %123 = add i8 %122, 1
  store i8 %123, ptr %16, align 1
  br label %88, !llvm.loop !8

124:                                              ; preds = %88
  br label %131

125:                                              ; preds = %36
  %126 = load ptr, ptr %12, align 8
  %127 = load ptr, ptr %6, align 8
  %128 = load ptr, ptr %8, align 8
  %129 = load i32, ptr %9, align 4
  %130 = call ptr @proto_tree_add_expert(ptr noundef %126, ptr noundef %127, ptr noundef @ei_pktc_unknown_doi, ptr noundef %128, i32 noundef %129, i32 noundef 1)
  br label %131

131:                                              ; preds = %125, %124, %86
  %132 = load ptr, ptr %13, align 8
  %133 = load i32, ptr %9, align 4
  %134 = load i32, ptr %11, align 4
  %135 = sub i32 %133, %134
  call void @proto_item_set_len(ptr noundef %132, i32 noundef %135)
  %136 = load i32, ptr %9, align 4
  call void @llvm.lifetime.end.p0(i64 1, ptr %16) #5
  call void @llvm.lifetime.end.p0(i64 1, ptr %15) #5
  call void @llvm.lifetime.end.p0(i64 8, ptr %14) #5
  call void @llvm.lifetime.end.p0(i64 8, ptr %13) #5
  call void @llvm.lifetime.end.p0(i64 8, ptr %12) #5
  call void @llvm.lifetime.end.p0(i64 4, ptr %11) #5
  ret i32 %136
}