; Function Attrs: null_pointer_is_valid sspstrong uwtable
define internal fastcc noundef i32 @dissect_pktc_list_of_ciphersuites(ptr noundef %0, ptr noundef %1, ptr noundef %2, i32 noundef %3, i8 noundef zeroext %4) unnamed_addr #0 {
  %6 = load i32, ptr @hf_pktc_list_of_ciphersuites, align 4
  %7 = tail call ptr @proto_tree_add_item(ptr noundef %1, i32 noundef %6, ptr noundef %2, i32 noundef %3, i32 noundef -1, i32 noundef 0)
  %8 = load i32, ptr @ett_pktc_list_of_ciphersuites, align 4
  %9 = tail call ptr @proto_item_add_subtree(ptr noundef %7, i32 noundef %8)
  %10 = tail call zeroext i8 @tvb_get_uint8(ptr noundef %2, i32 noundef %3)
  %11 = zext i8 %10 to i32
  %.not = icmp eq i8 %10, 0
  br i1 %.not, label %13, label %12

12:                                               ; preds = %5
  tail call void (ptr, ptr, ...) @proto_item_append_text(ptr noundef %9, ptr noundef nonnull @.str.127, i32 noundef %11)
  br label %13

13:                                               ; preds = %12, %5
  %14 = load i32, ptr @hf_pktc_list_of_ciphersuites_len, align 4
  %15 = tail call ptr @proto_tree_add_uint(ptr noundef %9, i32 noundef %14, ptr noundef %2, i32 noundef %3, i32 noundef 1, i32 noundef %11)
  %.not.i = icmp eq ptr %15, null
  br i1 %.not.i, label %proto_item_set_hidden.exit, label %16

16:                                               ; preds = %13
  %17 = getelementptr inbounds nuw i8, ptr %15, i64 40
  %18 = load ptr, ptr %17, align 8
  %.not5.i = icmp eq ptr %18, null
  br i1 %.not5.i, label %proto_item_set_hidden.exit, label %19

19:                                               ; preds = %16
  %20 = getelementptr inbounds nuw i8, ptr %18, i64 28
  %21 = load i32, ptr %20, align 4
  %22 = or i32 %21, 1
  store i32 %22, ptr %20, align 4
  br label %proto_item_set_hidden.exit

proto_item_set_hidden.exit:                       ; preds = %13, %16, %19
  %23 = add i32 %3, 1
  switch i8 %4, label %50 [
    i8 2, label %.preheader
    i8 1, label %.preheader61
  ]

.preheader61:                                     ; preds = %proto_item_set_hidden.exit
  br i1 %.not, label %.loopexit, label %.lr.ph

.preheader:                                       ; preds = %proto_item_set_hidden.exit
  br i1 %.not, label %.loopexit, label %.lr.ph67

.lr.ph67:                                         ; preds = %.preheader, %.lr.ph67
  %.066 = phi i8 [ %36, %.lr.ph67 ], [ 0, %.preheader ]
  %.05865 = phi i32 [ %35, %.lr.ph67 ], [ %23, %.preheader ]
  %24 = load i32, ptr @hf_pktc_snmpAuthenticationAlgorithm, align 4
  %25 = tail call ptr @proto_tree_add_item(ptr noundef %9, i32 noundef %24, ptr noundef %2, i32 noundef %.05865, i32 noundef 1, i32 noundef 0)
  %26 = tail call zeroext i8 @tvb_get_uint8(ptr noundef %2, i32 noundef %.05865)
  %27 = zext i8 %26 to i32
  %28 = tail call ptr @val_to_str(i32 noundef %27, ptr noundef nonnull @snmp_authentication_algorithm_vals, ptr noundef nonnull @.str.129)
  tail call void (ptr, ptr, ...) @proto_item_append_text(ptr noundef %9, ptr noundef nonnull @.str.128, ptr noundef %28)
  %29 = add i32 %.05865, 1
  %30 = load i32, ptr @hf_pktc_snmpEncryptionTransformID, align 4
  %31 = tail call ptr @proto_tree_add_item(ptr noundef %9, i32 noundef %30, ptr noundef %2, i32 noundef %29, i32 noundef 1, i32 noundef 0)
  %32 = tail call zeroext i8 @tvb_get_uint8(ptr noundef %2, i32 noundef %29)
  %33 = zext i8 %32 to i32
  %34 = tail call ptr @val_to_str(i32 noundef %33, ptr noundef nonnull @snmp_transform_id_vals, ptr noundef nonnull @.str.129)
  tail call void (ptr, ptr, ...) @proto_item_append_text(ptr noundef %9, ptr noundef nonnull @.str.130, ptr noundef %34)
  %35 = add i32 %.05865, 2
  %36 = add nuw i8 %.066, 1
  %exitcond73.not = icmp eq i8 %36, %10
  br i1 %exitcond73.not, label %.loopexit, label %.lr.ph67, !llvm.loop !6

.lr.ph:                                           ; preds = %.preheader61, %.lr.ph
  %.164 = phi i8 [ %49, %.lr.ph ], [ 0, %.preheader61 ]
  %.263 = phi i32 [ %48, %.lr.ph ], [ %23, %.preheader61 ]
  %37 = load i32, ptr @hf_pktc_ipsecAuthenticationAlgorithm, align 4
  %38 = tail call ptr @proto_tree_add_item(ptr noundef %9, i32 noundef %37, ptr noundef %2, i32 noundef %.263, i32 noundef 1, i32 noundef 0)
  %39 = tail call zeroext i8 @tvb_get_uint8(ptr noundef %2, i32 noundef %.263)
  %40 = zext i8 %39 to i32
  %41 = tail call ptr @val_to_str(i32 noundef %40, ptr noundef nonnull @ipsec_authentication_algorithm_vals, ptr noundef nonnull @.str.129)
  tail call void (ptr, ptr, ...) @proto_item_append_text(ptr noundef %9, ptr noundef nonnull @.str.128, ptr noundef %41)
  %42 = add i32 %.263, 1
  %43 = load i32, ptr @hf_pktc_ipsecEncryptionTransformID, align 4
  %44 = tail call ptr @proto_tree_add_item(ptr noundef %9, i32 noundef %43, ptr noundef %2, i32 noundef %42, i32 noundef 1, i32 noundef 0)
  %45 = tail call zeroext i8 @tvb_get_uint8(ptr noundef %2, i32 noundef %42)
  %46 = zext i8 %45 to i32
  %47 = tail call ptr @val_to_str(i32 noundef %46, ptr noundef nonnull @ipsec_transform_id_vals, ptr noundef nonnull @.str.129)
  tail call void (ptr, ptr, ...) @proto_item_append_text(ptr noundef %9, ptr noundef nonnull @.str.130, ptr noundef %47)
  %48 = add i32 %.263, 2
  %49 = add nuw i8 %.164, 1
  %exitcond.not = icmp eq i8 %49, %10
  br i1 %exitcond.not, label %.loopexit, label %.lr.ph, !llvm.loop !8

50:                                               ; preds = %proto_item_set_hidden.exit
  %51 = tail call ptr @proto_tree_add_expert(ptr noundef %9, ptr noundef %0, ptr noundef nonnull @ei_pktc_unknown_doi, ptr noundef %2, i32 noundef %23, i32 noundef 1)
  br label %.loopexit

.loopexit:                                        ; preds = %.lr.ph, %.lr.ph67, %.preheader61, %.preheader, %50
  %.159 = phi i32 [ %23, %50 ], [ %23, %.preheader ], [ %23, %.preheader61 ], [ %35, %.lr.ph67 ], [ %48, %.lr.ph ]
  %52 = sub i32 %.159, %3
  tail call void @proto_item_set_len(ptr noundef %7, i32 noundef %52)
  ret i32 %.159
}